; Function Attrs: mustprogress nounwind uwtable
define void @_ZN5osgeo4proj9operation10ConversionD0Ev(ptr noundef nonnull align 8 dereferenceable(24) initializes((0, 8), (24, 32), (40, 56), (72, 88)) %0) unnamed_addr #3 align 2 personality ptr @__gxx_personality_v0 {
  store ptr getelementptr inbounds nuw inrange(-24, 72) (i8, ptr @_ZTVN5osgeo4proj9operation10ConversionE, i64 24), ptr %0, align 8, !tbaa !3
  %2 = getelementptr inbounds nuw i8, ptr %0, i64 24
  store ptr getelementptr inbounds nuw inrange(-88, 56) (i8, ptr @_ZTVN5osgeo4proj9operation10ConversionE, i64 184), ptr %2, align 8, !tbaa !3
  %3 = getelementptr i8, ptr %0, i64 40
  store ptr getelementptr inbounds nuw inrange(-16, 24) (i8, ptr @_ZTVN5osgeo4proj9operation10ConversionE, i64 256), ptr %3, align 8, !tbaa !3
  %4 = getelementptr i8, ptr %0, i64 48
  store ptr getelementptr inbounds nuw inrange(-16, 24) (i8, ptr @_ZTVN5osgeo4proj9operation10ConversionE, i64 296), ptr %4, align 8, !tbaa !3
  %5 = getelementptr i8, ptr %0, i64 72
  store ptr getelementptr inbounds nuw inrange(-16, 24) (i8, ptr @_ZTVN5osgeo4proj9operation10ConversionE, i64 336), ptr %5, align 8, !tbaa !3
  %6 = getelementptr i8, ptr %0, i64 80
  store ptr getelementptr inbounds nuw inrange(-16, 24) (i8, ptr @_ZTVN5osgeo4proj9operation10ConversionE, i64 376), ptr %6, align 8, !tbaa !3
  %7 = getelementptr inbounds nuw i8, ptr %0, i64 16
  %8 = load ptr, ptr %7, align 8, !tbaa !11
  %.not.i.i.i = icmp eq ptr %8, null
  br i1 %.not.i.i.i, label %_ZN5osgeo4proj9operation10ConversionD1Ev.exit, label %_ZNKSt14default_deleteIN5osgeo4proj9operation10Conversion7PrivateEEclEPS4_.exit.i.i.i

_ZNKSt14default_deleteIN5osgeo4proj9operation10Conversion7PrivateEEclEPS4_.exit.i.i.i: ; preds = %1
  tail call void @_ZdlPvm(ptr noundef nonnull %8, i64 noundef 1) #31
  br label %_ZN5osgeo4proj9operation10ConversionD1Ev.exit

_ZN5osgeo4proj9operation10ConversionD1Ev.exit:    ; preds = %1, %_ZNKSt14default_deleteIN5osgeo4proj9operation10Conversion7PrivateEEclEPS4_.exit.i.i.i
  store ptr null, ptr %7, align 8, !tbaa !11
  tail call void @_ZN5osgeo4proj9operation15SingleOperationD2Ev(ptr noundef nonnull align 8 dereferenceable(24) %0, ptr noundef nonnull getelementptr inbounds nuw (i8, ptr @_ZTTN5osgeo4proj9operation10ConversionE, i64 8)) #32
  tail call void @_ZN5osgeo4proj9operation19CoordinateOperationD2Ev(ptr noundef nonnull align 8 dereferenceable(72) %2) #32
  tail call void @_ZdlPvm(ptr noundef nonnull %0, i64 noundef 96) #31
  ret void
}